(dp0
S'm.05jh2m'
p1
I539
sS'm.08737l'
p2
I986
sS'm.01yywx'
p3
I506
sS'm.07cyt6'
p4
I650
sS'm.0gthmp'
p5
I913
sS'm.0g1v96'
p6
I85
sS'm.02pshk'
p7
I140
sS'm.05dx4p'
p8
I520
sS'm.05y028'
p9
I704
sS'm.03yf8c'
p10
I983
sS'm.0jwr83x'
p11
I604
sS'm.0g9z_7z'
p12
I646
sS'm.07ldj3'
p13
I968
sS'm.0463ldq'
p14
I624
sS'm.03hnhw'
p15
I607
sS'm.03wb5p8'
p16
I531
sS'm.047ry4'
p17
I271
sS'm.0g9_3rx'
p18
I466
sS'm.0g5j4t'
p19
I682
sS'm.07l8f5'
p20
I272
sS'm.04zvkf'
p21
I268
sS'm.052_knp'
p22
I109
sS'm.0gl_kg'
p23
I999
sS'm.028z39'
p24
I38
sS'm.06fpft'
p25
I987
sS'm.031bml'
p26
I77
sS'm.04mk766'
p27
I912
sS'm.0r8pxyy'
p28
I165
sS'm.05vn8q'
p29
I492
sS'm.03cd5xq'
p30
I924
sS'm.01p_ykj'
p31
I966
sS'm.016yk0'
p32
I261
sS'm.072vyn'
p33
I343
sS'm.02n0j_'
p34
I84
sS'm.03yf0q'
p35
I671
sS'm.04jf0r'
p36
I316
sS'm.03d82km'
p37
I546
sS'm.05p6dbz'
p38
I891
sS'm.07fnrq'
p39
I795
sS'm.065y_j8'
p40
I765
sS'm.01jw0x'
p41
I668
sS'm.06_wn8k'
p42
I470
sS'm.03h623'
p43
I381
sS'm.065x7z'
p44
I383
sS'm.02p_h9'
p45
I441
sS'm.03y0cck'
p46
I311
sS'm.052_qn7'
p47
I799
sS'm.07frn7'
p48
I574
sS'm.0309jm'
p49
I231
sS'm.06b9zx'
p50
I910
sS'm.01gggl'
p51
I540
sS'm.01rxpq'
p52
I575
sS'm.0gkzb7h'
p53
I167
sS'm.0bxj_d'
p54
I514
sS'm.0g5y5t'
p55
I709
sS'm.051vw2'
p56
I408
sS'm.0c1406'
p57
I842
sS'm.03w9ybh'
p58
I623
sS'm.01vw1t9'
p59
I347
sS'm.0j624r7'
p60
I110
sS'm.06z_qs'
p61
I672
sS'm.01nmvtl'
p62
I423
sS'm.045bs6'
p63
I835
sS'm.043qy5x'
p64
I728
sS'm.04kxzr'
p65
I919
sS'm.01j87v'
p66
I974
sS'm.05p32hd'
p67
I282
sS'm.0cj4kr'
p68
I659
sS'm.08_6h8'
p69
I873
sS'm.025pr2'
p70
I592
sS'm.09v5wj4'
p71
I525
sS'm.045bg'
p72
I580
sS'm.0g55dbt'
p73
I253
sS'm.03_6y'
p74
I979
sS'm.0dl54k2'
p75
I58
sS'm.0pqzh'
p76
I997
sS'm.09th0f'
p77
I882
sS'm.087ljq'
p78
I822
sS'm.0dgq994'
p79
I530
sS'm.05g8sr'
p80
I970
sS'm.04jhb0b'
p81
I155
sS'm.08_g4q'
p82
I798
sS'm.0gcxnx0'
p83
I91
sS'm.06sn8m'
p84
I756
sS'm.05hsj5'
p85
I415
sS'm.03y7rnn'
p86
I946
sS'm.0xnjb'
p87
I936
sS'm.0858l'
p88
I541
sS'm.07kd_6w'
p89
I366
sS'm.0ch3s1'
p90
I634
sS'm.05scsw'
p91
I295
sS'm.0h3pb2h'
p92
I994
sS'm.01jj7_'
p93
I720
sS'm.043myws'
p94
I735
sS'm.04gnxk'
p95
I904
sS'm.01k99tm'
p96
I813
sS'm.0dwj9v'
p97
I490
sS'm.0285_b0'
p98
I749
sS'm.03cmzn_'
p99
I116
sS'm.06zsfpy'
p100
I629
sS'm.01rxfsw'
p101
I831
sS'm.02x_h0'
p102
I397
sS'm.03f00pd'
p103
I467
sS'm.05ldnp'
p104
I377
sS'm.03yrbz'
p105
I200
sS'm.0ch47_2'
p106
I246
sS'm.01b8g6'
p107
I877
sS'm.0277byn'
p108
I64
sS'm.054v2v'
p109
I855
sS'm.03c32dl'
p110
I26
sS'm.018p44'
p111
I308
sS'm.02x7dc6'
p112
I760
sS'm.089myr'
p113
I606
sS'm.02vml0q'
p114
I60
sS'm.03v_2c'
p115
I179
sS'm.01pr9kj'
p116
I522
sS'm.05yhh7'
p117
I53
sS'm.03h4y4g'
p118
I569
sS'm.02_68x'
p119
I701
sS'm.02st_y'
p120
I501
sS'm.04f2lg0'
p121
I160
sS'm.0434fz'
p122
I472
sS'm.01klmw'
p123
I0
sS'm.04qdky'
p124
I755
sS'm.01ypsj'
p125
I982
sS'm.0pzt4'
p126
I532
sS'm.0g04kg'
p127
I382
sS'm.05wnzq'
p128
I28
sS'm.0cvfkm'
p129
I563
sS'm.0g10br'
p130
I463
sS'm.0c8f6l'
p131
I555
sS'm.0ftqr'
p132
I729
sS'm.0dzsl4'
p133
I82
sS'm.05hh2g'
p134
I885
sS'm.01rs5p'
p135
I283
sS'm.04jg6hx'
p136
I768
sS'm.04vklk'
p137
I923
sS'm.0n8_l55'
p138
I46
sS'm.043qzwq'
p139
I267
sS'm.02vyxkm'
p140
I477
sS'm.01r_nkk'
p141
I985
sS'm.060vj_'
p142
I776
sS'm.01w15r8'
p143
I55
sS'm.07c7p0'
p144
I290
sS'm.01p839'
p145
I399
sS'm.0173lp'
p146
I543
sS'm.06w2rl'
p147
I917
sS'm.06j4vy'
p148
I275
sS'm.04l52c'
p149
I426
sS'm.0c65tr'
p150
I496
sS'm.05gxf3'
p151
I37
sS'm.0h0lr9'
p152
I150
sS'm.027f158'
p153
I229
sS'm.03qgtlg'
p154
I750
sS'm.0pz04'
p155
I79
sS'm.0862nf'
p156
I825
sS'm.0nd4n40'
p157
I930
sS'm.027qyl3'
p158
I871
sS'm.065bxx'
p159
I103
sS'm.0330y8'
p160
I315
sS'm.0m76b'
p161
I957
sS'm.03y6lf'
p162
I832
sS'm.04mt57'
p163
I806
sS'm.016xk5'
p164
I484
sS'm.02zbg1'
p165
I719
sS'm.08xtbc'
p166
I430
sS'm.02v1sx'
p167
I437
sS'm.01ctkj'
p168
I141
sS'm.03cvxs9'
p169
I886
sS'm.04gtp5n'
p170
I489
sS'm.070byl'
p171
I878
sS'm.02fv_0'
p172
I518
sS'm.038g2x'
p173
I861
sS'm.05zm6n6'
p174
I299
sS'm.03_jxq'
p175
I221
sS'm.03cml_c'
p176
I270
sS'm.04xmzd'
p177
I713
sS'm.0g9vg0w'
p178
I384
sS'm.0f6_x'
p179
I244
sS'm.05f946d'
p180
I199
sS'm.02q7hpp'
p181
I164
sS'm.042zc2'
p182
I687
sS'm.01b4mk'
p183
I856
sS'm.02r39q7'
p184
I474
sS'm.06617p5'
p185
I512
sS'm.01ssdpn'
p186
I743
sS'm.07btn6'
p187
I656
sS'm.0q587ql'
p188
I939
sS'm.0crgvz5'
p189
I143
sS'm.03s3cx'
p190
I250
sS'm.06ck88'
p191
I453
sS'm.0695rc'
p192
I952
sS'm.03s5x0'
p193
I934
sS'm.013pk3'
p194
I456
sS'm.04204g'
p195
I210
sS'm.04n6bks'
p196
I475
sS'm.0255nz'
p197
I911
sS'm.09536f'
p198
I432
sS'm.01rftw'
p199
I378
sS'm.0cphfd'
p200
I63
sS'm.016v92'
p201
I524
sS'm.05zpsmw'
p202
I440
sS'm.029rj5'
p203
I577
sS'm.0ll3j1m'
p204
I690
sS'm.0cc5jvj'
p205
I133
sS'm.03kf66'
p206
I922
sS'm.0by96z'
p207
I892
sS'm.0j42xtk'
p208
I597
sS'm.03mbjgj'
p209
I342
sS'm.04ps6c'
p210
I863
sS'm.0h5329p'
p211
I147
sS'm.04px6s'
p212
I929
sS'm.09q1wx'
p213
I418
sS'm.02wg4w'
p214
I740
sS'm.04gn8lx'
p215
I197
sS'm.0bhbxjp'
p216
I762
sS'm.06w7p0x'
p217
I905
sS'm.02t9r7'
p218
I759
sS'm.075y09'
p219
I782
sS'm.0gr36'
p220
I360
sS'm.05pt4gz'
p221
I583
sS'm.030dx5'
p222
I324
sS'm.089533'
p223
I869
sS'm.030xfx'
p224
I277
sS'm.0l8qs3q'
p225
I121
sS'm.0dgqnts'
p226
I98
sS'm.0bv72l'
p227
I988
sS'm.07tpgx'
p228
I684
sS'm.07nhc9'
p229
I707
sS'm.07z1_q'
p230
I99
sS'm.03_lq5'
p231
I626
sS'm.03mwcr'
p232
I459
sS'm.04zz2bm'
p233
I61
sS'm.08tcyn'
p234
I11
sS'm.0cnx8k8'
p235
I620
sS'm.0304ty'
p236
I464
sS'm.0ds0dd'
p237
I233
sS'm.01qs2vn'
p238
I161
sS'm.07td21'
p239
I596
sS'm.025pnd'
p240
I20
sS'm.01w632f'
p241
I3
sS'm.0c3_bs'
p242
I507
sS'm.09glj9q'
p243
I145
sS'm.03tjw0'
p244
I625
sS'm.06dg86'
p245
I225
sS'm.02_z3j'
p246
I52
sS'm.02w0f8l'
p247
I887
sS'm.01vysy8'
p248
I439
sS'm.0409ch1'
p249
I390
sS'm.02wyvrd'
p250
I991
sS'm.03hzrls'
p251
I715
sS'm.04dz8'
p252
I516
sS'm.07wr_v'
p253
I357
sS'm.07rk0p'
p254
I497
sS'm.02hxfb'
p255
I108
sS'm.01wbsdz'
p256
I658
sS'm.0mdyn'
p257
I376
sS'm.02rvxz'
p258
I120
sS'm.01qs8v'
p259
I702
sS'm.02vqw9x'
p260
I396
sS'm.0g4t0d'
p261
I410
sS'm.0gc85y'
p262
I434
sS'm.04x74q'
p263
I78
sS'm.05nhdf'
p264
I385
sS'm.02nb2s'
p265
I22
sS'm.0dbzg'
p266
I721
sS'm.0136pk'
p267
I395
sS'm.01hyss'
p268
I226
sS'm.0hr9rgd'
p269
I240
sS'm.05969c'
p270
I388
sS'm.025_1vt'
p271
I242
sS'm.0gkz_l'
p272
I775
sS'm.01jqthq'
p273
I71
sS'm.04214fg'
p274
I876
sS'm.01s8f4'
p275
I862
sS'm.0gvr8xw'
p276
I273
sS'm.02994d'
p277
I926
sS'm.051cc'
p278
I814
sS'm.03884d'
p279
I479
sS'm.029yw7'
p280
I157
sS'm.04f65rx'
p281
I780
sS'm.054z0fx'
p282
I909
sS'm.02p7th'
p283
I509
sS'm.033tln'
p284
I705
sS'm.04ld76x'
p285
I927
sS'm.06v9z1'
p286
I66
sS'm.07k9j4'
p287
I398
sS'm.0py330t'
p288
I264
sS'm.01pqwfj'
p289
I643
sS'm.01rj4f'
p290
I559
sS'm.04cvn4r'
p291
I581
sS'm.026sss'
p292
I829
sS'm.01qqh1'
p293
I935
sS'm.02qrzk8'
p294
I945
sS'm.01x01bj'
p295
I12
sS'm.01449w'
p296
I963
sS'm.05s_y65'
p297
I691
sS'm.0h1gcvm'
p298
I106
sS'm.0b8d4v'
p299
I673
sS'm.01w1wtt'
p300
I932
sS'm.0lk_wqt'
p301
I183
sS'm.01nn44c'
p302
I552
sS'm.0fyhw5'
p303
I975
sS'm.025b8l'
p304
I778
sS'm.065zmwx'
p305
I4
sS'm.043y3z'
p306
I365
sS'm.05xb11l'
p307
I600
sS'm.0dvz_h'
p308
I40
sS'm.05pdd4g'
p309
I359
sS'm.0b3lkg'
p310
I288
sS'm.01m4qj'
p311
I738
sS'm.03c75w4'
p312
I168
sS'm.09gds74'
p313
I693
sS'm.02n358'
p314
I587
sS'm.02phz5k'
p315
I727
sS'm.06jkvm'
p316
I964
sS'm.07s7b3x'
p317
I424
sS'm.09x3s8'
p318
I478
sS'm.027s3gd'
p319
I943
sS'm.01ywbz'
p320
I843
sS'm.0qjq8'
p321
I25
sS'm.0czd60k'
p322
I41
sS'm.03gygx6'
p323
I449
sS'm.09ggjsc'
p324
I703
sS'm.0dzsp8'
p325
I523
sS'm.03lytp'
p326
I984
sS'm.01qtdgh'
p327
I96
sS'm.0gx0s3s'
p328
I371
sS'm.05f8mbs'
p329
I87
sS'm.076wpdh'
p330
I811
sS'm.02v5jr'
p331
I833
sS'm.0cmyq'
p332
I7
sS'm.03r9xx'
p333
I460
sS'm.023fm7'
p334
I805
sS'm.026thc3'
p335
I816
sS'm.04fbr6'
p336
I276
sS'm.02qs7zh'
p337
I31
sS'm.02ygr1'
p338
I823
sS'm.03q3sy'
p339
I589
sS'm.05zmmls'
p340
I602
sS'm.042rb0'
p341
I392
sS'm.03_j6w'
p342
I349
sS'm.03999s'
p343
I590
sS'm.043n4rs'
p344
I219
sS'm.0rfgztf'
p345
I412
sS'm.0cjqjn'
p346
I557
sS'm.080f340'
p347
I50
sS'm.06053'
p348
I772
sS'm.04bs3j'
p349
I903
sS'm.04f_phh'
p350
I528
sS'm.027cfv'
p351
I262
sS'm.011_7j'
p352
I773
sS'm.0338ws'
p353
I631
sS'm.0347db'
p354
I122
sS'm.0c3_jkf'
p355
I45
sS'm.0kss6g'
p356
I485
sS'm.03_q6b'
p357
I422
sS'm.08_czn'
p358
I455
sS'm.025y23'
p359
I615
sS'm.06ql_2'
p360
I195
sS'm.04lfl3q'
p361
I255
sS'm.072qss'
p362
I951
sS'm.051tf5'
p363
I75
sS'm.04z_2jv'
p364
I568
sS'm.01v89v1'
p365
I995
sS'm.0dlkgwl'
p366
I29
sS'm.02_8qh'
p367
I777
sS'm.04ld3wv'
p368
I981
sS'm.03_5ls'
p369
I641
sS'm.01t2sk'
p370
I417
sS'm.05f850m'
p371
I483
sS'm.02z9gd_'
p372
I521
sS'm.02vr6g8'
p373
I142
sS'm.02phppl'
p374
I260
sS'm.05p4526'
p375
I812
sS'm.03nvlc'
p376
I669
sS'm.04b8_p'
p377
I172
sS'm.0bw7qg'
p378
I844
sS'm.082cmr'
p379
I786
sS'm.057fjl'
p380
I942
sS'm.01hy33'
p381
I972
sS'm.02qy86f'
p382
I510
sS'm.026mzh'
p383
I990
sS'm.02qwxhj'
p384
I928
sS'm.039gj2'
p385
I651
sS'm.02rvl2z'
p386
I350
sS'm.0bbv304'
p387
I201
sS'm.06zry9j'
p388
I54
sS'm.01wzlxj'
p389
I612
sS'm.02gqcs'
p390
I708
sS'm.037t9m'
p391
I461
sS'm.01rg4pd'
p392
I548
sS'm.0gwz4xv'
p393
I480
sS'm.09gmp35'
p394
I647
sS'm.0261qwx'
p395
I36
sS'm.07skmy'
p396
I665
sS'm.0h3wvd'
p397
I796
sS'm.05h2myz'
p398
I937
sS'm.06psz3'
p399
I241
sS'm.0gqx6'
p400
I614
sS'm.0p9gg'
p401
I793
sS'm.01qqytf'
p402
I214
sS'm.076kpq'
p403
I797
sS'm.09ynh4'
p404
I16
sS'm.07kd7l3'
p405
I959
sS'm.06r24y'
p406
I364
sS'm.049h3nx'
p407
I622
sS'm.064mxpf'
p408
I906
sS'm.04gh3g'
p409
I916
sS'm.0n49d21'
p410
I807
sS'm.02x0j_'
p411
I677
sS'm.09502k'
p412
I610
sS'm.03pmk3'
p413
I726
sS'm.03g1q4'
p414
I222
sS'm.08gzjb'
p415
I314
sS'm.01k0jf'
p416
I663
sS'm.08swgx'
p417
I794
sS'm.01q5bws'
p418
I402
sS'm.04xk_7'
p419
I820
sS'm.01vtqzs'
p420
I298
sS'm.026r291'
p421
I858
sS'm.03ld43'
p422
I223
sS'm.08g46k'
p423
I326
sS'm.01p22jq'
p424
I239
sS'm.05d26l'
p425
I281
sS'm.02q86x5'
p426
I689
sS'm.09rlmy'
p427
I153
sS'm.03017f'
p428
I117
sS'm.0dg140'
p429
I386
sS'm.06tjh6'
p430
I598
sS'm.023sng'
p431
I664
sS'm.05h2g0r'
p432
I648
sS'm.026r7w'
p433
I547
sS'm.05pjgm'
p434
I312
sS'm.01vwbts'
p435
I138
sS'm.068660'
p436
I486
sS'm.05993q'
p437
I837
sS'm.06w7f_t'
p438
I696
sS'm.02vr4wb'
p439
I770
sS'm.0c01dyk'
p440
I826
sS'm.0gtg_k'
p441
I746
sS'm.02624g'
p442
I230
sS'm.025yhpl'
p443
I344
sS'm.028k57'
p444
I146
sS'm.0h27z'
p445
I473
sS'm.03f4xvm'
p446
I111
sS'm.04g20mp'
p447
I323
sS'm.08tf3s'
p448
I595
sS'm.02ns0x'
p449
I866
sS'm.01r_5r0'
p450
I482
sS'm.01p1ft'
p451
I113
sS'm.05xphx'
p452
I256
sS'm.04n4kgx'
p453
I457
sS'm.01wb715'
p454
I758
sS'm.03sfbh'
p455
I332
sS'm.027zk4'
p456
I840
sS'm.0gqc7'
p457
I245
sS'm.0j9p68_'
p458
I101
sS'm.03158s'
p459
I989
sS'm.07lj7y'
p460
I897
sS'm.05bmg8'
p461
I339
sS'm.0bmdt8'
p462
I763
sS'm.01m84j0'
p463
I411
sS'm.039kn'
p464
I471
sS'm.080gct2'
p465
I114
sS'm.01xb1j'
p466
I579
sS'm.0bdt4pm'
p467
I852
sS'm.080m3yc'
p468
I973
sS'm.012dtw'
p469
I205
sS'm.07snzd'
p470
I667
sS'm.05dcbl'
p471
I171
sS'm.016lh0'
p472
I958
sS'm.0239y8'
p473
I895
sS'm.04ptqp'
p474
I567
sS'm.05zwvtc'
p475
I351
sS'm.0gyv94q'
p476
I42
sS'm.03dhy8'
p477
I27
sS'm.06zxx7'
p478
I355
sS'm.0d9mt_'
p479
I462
sS'm.027mzl7'
p480
I303
sS'm.0gyy0'
p481
I954
sS'm.06_gq6'
p482
I618
sS'm.0d4krw'
p483
I815
sS'm.02vyj09'
p484
I235
sS'm.0hnc8sn'
p485
I375
sS'm.038_0m'
p486
I649
sS'm.0167km'
p487
I198
sS'm.029src'
p488
I70
sS'm.02rb9b3'
p489
I293
sS'm.079nvf'
p490
I608
sS'm.05f95nd'
p491
I341
sS'm.0cknm2'
p492
I601
sS'm.0g8gg6'
p493
I451
sS'm.02dshx'
p494
I213
sS'm.0ggbnd9'
p495
I329
sS'm.0d810y'
p496
I881
sS'm.094hjr'
p497
I584
sS'm.03g4ck'
p498
I81
sS'm.0j_rf0'
p499
I679
sS'm.0h1nt'
p500
I237
sS'm.04s3b9'
p501
I57
sS'm.0c3jby'
p502
I884
sS'm.081jf1'
p503
I529
sS'm.0bwgddv'
p504
I184
sS'm.02x2sc'
p505
I409
sS'm.0h2zbzv'
p506
I859
sS'm.0j259pl'
p507
I627
sS'm.0292lw'
p508
I685
sS'm.055zj2'
p509
I367
sS'm.036plh'
p510
I302
sS'm.0432b'
p511
I370
sS'm.07h96w'
p512
I771
sS'm.0cyly0'
p513
I660
sS'm.02y1_p'
p514
I33
sS'm.0ggb7b0'
p515
I148
sS'm.01swwn0'
p516
I144
sS'm.06h_l'
p517
I949
sS'm.09rq7_'
p518
I785
sS'm.05pbk2h'
p519
I699
sS'm.01541z'
p520
I883
sS'm.0fkt5m'
p521
I784
sS'm.02rq5b3'
p522
I619
sS'm.026pbss'
p523
I294
sS'm.09j028'
p524
I694
sS'm.0b0fxc'
p525
I838
sS'm.09qxy'
p526
I593
sS'm.02q2jlq'
p527
I327
sS'm.0gcj9s'
p528
I59
sS'm.04lc5t'
p529
I338
sS'm.03f46w'
p530
I296
sS'm.06yktf'
p531
I1
sS'm.01qmst'
p532
I488
sS'm.0240r1'
p533
I279
sS'm.037kqv'
p534
I747
sS'm.0n_559n'
p535
I500
sS'm.0b6fhrg'
p536
I526
sS'm.0pcgn36'
p537
I15
sS'm.0dzkq'
p538
I645
sS'm.02q1z35'
p539
I123
sS'm.03khs_'
p540
I468
sS'm.019389'
p541
I714
sS'm.0h3s6pd'
p542
I566
sS'm.05f6x55'
p543
I220
sS'm.07kcs6h'
p544
I337
sS'm.02y9md'
p545
I734
sS'm.02rmv72'
p546
I333
sS'm.09jqn2'
p547
I97
sS'm.06tdrg'
p548
I8
sS'm.0285y9d'
p549
I502
sS'm.0fl450'
p550
I674
sS'm.0g0t0'
p551
I839
sS'm.02zbhpk'
p552
I30
sS'm.05p72g_'
p553
I732
sS'm.0883rm'
p554
I953
sS'm.0l8qf4w'
p555
I448
sS'm.0bsf3'
p556
I783
sS'm.01g5m2'
p557
I874
sS'm.0b2sbj'
p558
I504
sS'm.01k1h'
p559
I5
sS'm.061s1l'
p560
I452
sS'm.04vvnb'
p561
I65
sS'm.02q7s4q'
p562
I505
sS'm.074vr1'
p563
I710
sS'm.0gj190'
p564
I126
sS'm.032cn9'
p565
I334
sS'm.0fnch2'
p566
I419
sS'm.0262_mx'
p567
I779
sS'm.03bxwtd'
p568
I76
sS'm.0bv080'
p569
I582
sS'm.0b6j7x'
p570
I511
sS'm.04rhq4'
p571
I80
sS'm.01x1lf'
p572
I801
sS'm.06lfzc'
p573
I9
sS'm.0bpr5z'
p574
I955
sS'm.095x2g'
p575
I572
sS'm.0gxzpn2'
p576
I128
sS'm.02x1z0c'
p577
I788
sS'm.03f0yml'
p578
I640
sS'm.01q810'
p579
I433
sS'm.03cbqrs'
p580
I68
sS'm.05dt63'
p581
I320
sS'm.0d749q'
p582
I537
sS'm.028470d'
p583
I675
sS'm.033mkn'
p584
I847
sS'm.04t4sj'
p585
I34
sS'm.076r5r'
p586
I170
sS'm.0gx0g'
p587
I800
sS'm.03tlmz'
p588
I821
sS'm.02myfc'
p589
I662
sS'm.02sdx'
p590
I854
sS'm.03f5w8k'
p591
I32
sS'm.05bn87'
p592
I131
sS'm.02zpzn'
p593
I621
sS'm.066g5s'
p594
I899
sS'm.039lb3'
p595
I849
sS'm.0419pw'
p596
I686
sS'm.0bslxh'
p597
I285
sS'm.03hln7k'
p598
I93
sS'm.0450k5'
p599
I553
sS'm.043r3cy'
p600
I481
sS'm.0c1snn'
p601
I86
sS'm.09bc3'
p602
I191
sS'm.06dz86'
p603
I757
sS'm.02rf5tm'
p604
I850
sS'm.02c8gz'
p605
I967
sS'm.0ds22rl'
p606
I274
sS'm.0b77jdt'
p607
I591
sS'm.027nbyf'
p608
I503
sS'm.09g6r6'
p609
I56
sS'm.02qgt6w'
p610
I586
sS'm.038m96'
p611
I628
sS'm.026kyrm'
p612
I977
sS'm.0cz29w'
p613
I178
sS'm.0h7nl8v'
p614
I247
sS'm.0n_jc52'
p615
I536
sS'm.0g5brh'
p616
I879
sS'm.05q_b'
p617
I980
sS'm.01y9s0'
p618
I576
sS'm.07mz77'
p619
I425
sS'm.0d05b1'
p620
I918
sS'm.0k0vc6g'
p621
I431
sS'm.0cny26v'
p622
I356
sS'm.01zvjj'
p623
I358
sS'm.07vp23'
p624
I248
sS'm.043cl9'
p625
I187
sS'm.0465ps6'
p626
I636
sS'm.04_3_g'
p627
I139
sS'm.0c3qj6'
p628
I476
sS'm.06fc0b'
p629
I83
sS'm.025w11'
p630
I637
sS'm.012fgx'
p631
I697
sS'm.0fm_xy'
p632
I403
sS'm.060dwr'
p633
I538
sS'm.015j58'
p634
I736
sS'm.04pzjn'
p635
I325
sS'm.0gp3zk'
p636
I23
sS'm.0ngstl9'
p637
I186
sS'm.031bf1'
p638
I151
sS'm.02p45h'
p639
I515
sS'm.04xnr3'
p640
I252
sS'm.04yb7nl'
p641
I112
sS'm.0gvtvz1'
p642
I265
sS'm.01tpjh'
p643
I129
sS'm.01p6_6v'
p644
I742
sS'm.0gl39ny'
p645
I630
sS'm.04fcm3'
p646
I450
sS'm.0dmrh2'
p647
I149
sS'm.040vhh'
p648
I348
sS'm.047q6x6'
p649
I851
sS'm.01n0fvc'
p650
I764
sS'm.0ch_sc'
p651
I318
sS'm.02qtm4v'
p652
I611
sS'm.0b27cx'
p653
I824
sS'm.08hsww'
p654
I269
sS'm.03436f'
p655
I304
sS'm.09gsq1'
p656
I845
sS'm.028249t'
p657
I767
sS'm.09wtt_'
p658
I125
sS'm.0287s0b'
p659
I864
sS'm.04ld8kf'
p660
I493
sS'm.05m63c'
p661
I394
sS'm.0fmz09'
p662
I421
sS'm.0dgqmkw'
p663
I182
sS'm.0h77rn'
p664
I446
sS'm.07m77x'
p665
I72
sS'm.02638yy'
p666
I827
sS'm.07t_4n'
p667
I761
sS'm.01rzqd9'
p668
I212
sS'm.026grpg'
p669
I379
sS'm.0dvtpz'
p670
I406
sS'm.0p8t21s'
p671
I680
sS'm.027v7k6'
p672
I914
sS'm.0dr78'
p673
I215
sS'm.025b3k'
p674
I978
sS'm.087c2g'
p675
I961
sS'm.0j29m8w'
p676
I363
sS'm.07cywg'
p677
I544
sS'm.0gyvy4l'
p678
I442
sS'm.0b7bjh'
p679
I321
sS'm.0bbn1t'
p680
I632
sS'm.04q09d'
p681
I692
sS'm.0j7j7w2'
p682
I681
sS'm.02z5p15'
p683
I135
sS'm.021l9k'
p684
I13
sS'm.0j45n66'
p685
I846
sS'm.05b64kw'
p686
I232
sS'm.0b6l81k'
p687
I211
sS'm.0c6srmj'
p688
I465
sS'm.02rqp7v'
p689
I865
sS'm.0bs6hr'
p690
I130
sS'm.02__zz'
p691
I266
sS'm.0btj0'
p692
I361
sS'm.0332rf'
p693
I254
sS'm.05ry0p'
p694
I487
sS'm.0ggmd8'
p695
I313
sS'm.0hv49'
p696
I263
sS'm.06fw0j'
p697
I921
sS'm.01sjrw'
p698
I94
sS'm.02n3b8'
p699
I192
sS'm.03y7r4'
p700
I373
sS'm.0mj4n'
p701
I748
sS'm.026zms6'
p702
I676
sS'm.05g7p6'
p703
I105
sS'm.0hhqp47'
p704
I609
sS'm.0c0b9c'
p705
I90
sS'm.03c_dfv'
p706
I243
sS'm.06qxx0'
p707
I717
sS'm.01k1tqk'
p708
I550
sS'm.0dd844'
p709
I902
sS'm.01nm4c3'
p710
I447
sS'm.024jwt'
p711
I534
sS'm.01vdrw'
p712
I189
sS'm.02rcfnp'
p713
I118
sS'm.01fhnm'
p714
I284
sS'm.0gcj_rz'
p715
I809
sS'm.0lpys5p'
p716
I853
sS'm.04d_b8t'
p717
I969
sS'm.01s33z'
p718
I739
sS'm.0fjt0h'
p719
I152
sS'm.04pxcx'
p720
I642
sS'm.0c96wb'
p721
I177
sS'm.03c7gfd'
p722
I443
sS'm.0hhtvb0'
p723
I17
sS'm.06s5pl'
p724
I35
sS'm.0443y3'
p725
I652
sS'm.06zk7pv'
p726
I810
sS'm.0gjdg9j'
p727
I599
sS'm.0gh8618'
p728
I104
sS'm.0555z'
p729
I404
sS'm.0ds50h'
p730
I310
sS'm.03spvm'
p731
I670
sS'm.0cm8xqj'
p732
I896
sS'm.026hvjz'
p733
I908
sS'm.04tpcx'
p734
I889
sS'm.09cgbz'
p735
I469
sS'm.0qksf'
p736
I900
sS'm.01mxp8n'
p737
I695
sS'm.094xh'
p738
I429
sS'm.0g9vh3x'
p739
I236
sS'm.0dxmyh'
p740
I678
sS'm.0g1_q'
p741
I594
sS'm.02b85w'
p742
I387
sS'm.033009'
p743
I322
sS'm.06zg2d'
p744
I393
sS'm.03w5x_'
p745
I18
sS'm.043js'
p746
I551
sS'm.05k665'
p747
I372
sS'm.09bz7b'
p748
I744
sS'm.0286y5x'
p749
I545
sS'm.01kf88'
p750
I706
sS'm.0bs3csl'
p751
I136
sS'm.02qskx2'
p752
I162
sS'm.047mwl_'
p753
I519
sS'm.016ksk'
p754
I380
sS'm.01v4yz6'
p755
I925
sS'm.0d_djz'
p756
I804
sS'm.07kgh_9'
p757
I95
sS'm.0pxww'
p758
I790
sS'm.03dkdb'
p759
I565
sS'm.01msqk'
p760
I517
sS'm.07t0ws'
p761
I134
sS'm.04c1xv'
p762
I345
sS'm.03vtsx'
p763
I753
sS'm.09v5r00'
p764
I204
sS'm.06n1v9'
p765
I400
sS'm.0n59bzv'
p766
I14
sS'm.04dzmdl'
p767
I217
sS'm.0frc92'
p768
I389
sS'm.02rzlb8'
p769
I731
sS'm.084z0w'
p770
I180
sS'm.04d4jb'
p771
I888
sS'm.03wbfl4'
p772
I542
sS'm.0cc77st'
p773
I346
sS'm.07f3wn'
p774
I725
sS'm.028428d'
p775
I554
sS'm.038nls'
p776
I73
sS'm.06d814'
p777
I657
sS'm.04j7xw'
p778
I203
sS'm.01tj9gz'
p779
I107
sS'm.033tw8'
p780
I194
sS'm.016pns'
p781
I616
sS'm.01nrq5'
p782
I445
sS'm.01p7yb'
p783
I817
sS'm.024wsh'
p784
I353
sS'm.02lxj_'
p785
I870
sS'm.0ks1h8'
p786
I169
sS'm.0999g3'
p787
I454
sS'm.0fv4g0'
p788
I560
sS'm.016yqj'
p789
I752
sS'm.04y8l1h'
p790
I209
sS'm.027dpx'
p791
I49
sS'm.096hs1'
p792
I174
sS'm.01v_rb7'
p793
I661
sS'm.088yb6'
p794
I653
sS'm.03h36qr'
p795
I993
sS'm.085mtf'
p796
I39
sS'm.09vvmd6'
p797
I438
sS'm.075cx2'
p798
I875
sS'm.064pn2t'
p799
I88
sS'm.06vz8q'
p800
I571
sS'm.0ktbjy'
p801
I956
sS'm.05hxm1'
p802
I723
sS'm.04qdxq'
p803
I960
sS'm.01my_c'
p804
I872
sS'm.0bmn4p'
p805
I190
sS'm.0gby9d6'
p806
I745
sS'm.09g0h'
p807
I258
sS'm.02q6c0q'
p808
I688
sS'm.0h64_31'
p809
I948
sS'm.0gfgczq'
p810
I331
sS'm.03461q'
p811
I407
sS'm.0b_4z'
p812
I100
sS'm.05q4s0c'
p813
I992
sS'm.0c01vdp'
p814
I655
sS'm.09gyh1'
p815
I249
sS'm.07kgf5g'
p816
I119
sS'm.03tb4n'
p817
I193
sS'm.078bgn'
p818
I791
sS'm.04jq_g'
p819
I115
sS'm.021npv'
p820
I513
sS'm.0c2ry'
p821
I435
sS'm.09kc6n'
p822
I585
sS'm.04zwg0h'
p823
I613
sS'm.0j3d_3h'
p824
I857
sS'm.0bkq_8'
p825
I458
sS'm.027qj05'
p826
I257
sS'm.03wbgd'
p827
I808
sS'm.012q4n'
p828
I741
sS'm.0cx098'
p829
I216
sS'm.094hxb'
p830
I787
sS'm.0f7mpp'
p831
I336
sS'm.09v8r9j'
p832
I556
sS'm.062ftr'
p833
I754
sS'm.072sfm'
p834
I880
sS'm.0dlllc6'
p835
I920
sS'm.021hp8'
p836
I405
sS'm.09sztf'
p837
I427
sS'm.08vrwg'
p838
I841
sS'm.026y70n'
p839
I535
sS'm.04glncs'
p840
I499
sS'm.0gnrd6'
p841
I307
sS'm.03m0vj'
p842
I940
sS'm.0bcttc'
p843
I718
sS'm.04j0s3'
p844
I766
sS'm.0ch2xns'
p845
I573
sS'm.02qg6y'
p846
I828
sS'm.052gn1'
p847
I330
sS'm.0j4588g'
p848
I867
sS'm.07cmc5'
p849
I558
sS'm.01j7jm'
p850
I444
sS'm.01pqy_'
p851
I436
sS'm.0jt8q1r'
p852
I638
sS'm.03cs42b'
p853
I44
sS'm.05n_7x3'
p854
I898
sS'm.06_h89'
p855
I228
sS'm.06w6vvs'
p856
I868
sS'm.0fh_n8'
p857
I278
sS'm.02fqwb'
p858
I335
sS'm.02x63pb'
p859
I289
sS'm.0469gs'
p860
I69
sS'm.0nhwgdh'
p861
I683
sS'm.0bhsgq'
p862
I227
sS'm.0311wg'
p863
I89
sS'm.05jkgc'
p864
I836
sS'm.03qfs0b'
p865
I154
sS'm.02psp1v'
p866
I401
sS'm.04_c0k'
p867
I74
sS'm.0f_v5'
p868
I362
sS'm.0505b0'
p869
I251
sS'm.03zz8b'
p870
I724
sS'm.020hyj'
p871
I300
sS'm.01wd0p'
p872
I549
sS'm.02x4syk'
p873
I834
sS'm.04crl2d'
p874
I848
sS'm.03p6gq'
p875
I711
sS'm.03cc41'
p876
I218
sS'm.026kb23'
p877
I286
sS'm.01vd521'
p878
I10
sS'm.0b36my'
p879
I48
sS'm.08w7vj'
p880
I24
sS'm.0lzb8'
p881
I666
sS'm.03kf8m'
p882
I391
sS'm.0dymvp'
p883
I207
sS'm.0j43sw5'
p884
I716
sS'm.03_dxb'
p885
I938
sS'm.01vt0_p'
p886
I962
sS'm.0c04b_'
p887
I132
sS'm.01r1jsk'
p888
I996
sS'm.0dltj'
p889
I234
sS'm.01p6p6v'
p890
I306
sS'm.0crk58'
p891
I792
sS'm.08znf8'
p892
I562
sS'm.02wkfc'
p893
I238
sS'm.01vzqdq'
p894
I352
sS'm.018v_q'
p895
I291
sS'm.047c7ph'
p896
I319
sS'm.09sljd8'
p897
I561
sS'm.03khrl'
p898
I309
sS'm.0b744d9'
p899
I700
sS'm.0bw4gd'
p900
I495
sS'm.01whr4w'
p901
I907
sS'm.04vvff'
p902
I894
sS'm.0hm23p2'
p903
I181
sS'm.0j9m4vm'
p904
I43
sS'm.034g1l'
p905
I328
sS'm.02637k'
p906
I830
sS'm.064m2br'
p907
I102
sS'm.028t6g'
p908
I51
sS'm.01rlyjc'
p909
I287
sS'm.059rpy'
p910
I819
sS'm.027wxz6'
p911
I368
sS'm.01r9md'
p912
I654
sS'm.0fntz7'
p913
I127
sS'm.076x7x'
p914
I498
sS'm.0b7bj96'
p915
I292
sS'm.0gby932'
p916
I781
sS'm.02w4fkq'
p917
I21
sS'm.04ddqd'
p918
I950
sS'm.07s4b4r'
p919
I769
sS'm.01qydsr'
p920
I789
sS'm.04lqls'
p921
I730
sS'm.013qwy'
p922
I202
sS'm.04twmk'
p923
I166
sS'm.0b75qfb'
p924
I802
sS'm.01h448'
p925
I570
sS'm.02vm26'
p926
I890
sS'm.01_njt'
p927
I639
sS'm.0c7xsh'
p928
I633
sS'm.06p8hd'
p929
I62
sS'm.06v25h'
p930
I67
sS'm.026f4b4'
p931
I644
sS'm.043nq7r'
p932
I297
sS'm.03vtny'
p933
I971
sS'm.0h1f9nz'
p934
I494
sS'm.01vn35l'
p935
I2
sS'm.05y2j4f'
p936
I617
sS'm.03mf28v'
p937
I6
sS'm.0gg9y1s'
p938
I803
sS'm.03pp8_'
p939
I206
sS'm.01mny4_'
p940
I722
sS'm.07t3x8'
p941
I374
sS'm.0drwqtn'
p942
I369
sS'm.05f60j7'
p943
I340
sS'm.07pwhm'
p944
I915
sS'm.01h0_w'
p945
I208
sS'm.0c7zzd'
p946
I733
sS'm.0c79s3'
p947
I564
sS'm.09grqq'
p948
I305
sS'm.05rp1k'
p949
I19
sS'm.052s5w'
p950
I635
sS'm.02b56f'
p951
I774
sS'm.03vrp'
p952
I317
sS'm.0j46c2c'
p953
I420
sS'm.03d4lw7'
p954
I508
sS'm.0263vkb'
p955
I737
sS'm.01lqkw_'
p956
I124
sS'm.02w8c_'
p957
I196
sS'm.03mbxht'
p958
I901
sS'm.021bh0'
p959
I605
sS'm.05xpql'
p960
I163
sS'm.0hmbk'
p961
I603
sS'm.01r7rh5'
p962
I527
sS'm.04t49j'
p963
I416
sS'm.0bwq80'
p964
I47
sS'm.01qkdh'
p965
I818
sS'm.0dgq8k7'
p966
I947
sS'm.0fsl13'
p967
I92
sS'm.013ylm'
p968
I976
sS'm.0fxczv'
p969
I998
sS'm.025zwl5'
p970
I944
sS'm.0h7qctw'
p971
I588
sS'm.01sd5zr'
p972
I893
sS'm.02r6yg1'
p973
I931
sS'm.06yv9n'
p974
I941
sS'm.05__67'
p975
I173
sS'm.09gklgx'
p976
I176
sS'm.09zx52'
p977
I224
sS'm.0bzzf'
p978
I159
sS'm.01mymt'
p979
I301
sS'm.04mznrz'
p980
I354
sS'm.08bty9'
p981
I414
sS'm.01l988'
p982
I860
sS'm.05yhb'
p983
I280
sS'm.01xcp_'
p984
I751
sS'm.03f2h01'
p985
I698
sS'm.08tn_5'
p986
I156
sS'm.04t1h_'
p987
I185
sS'm.05p173'
p988
I933
sS'm.01fx5l'
p989
I965
sS'm.03lw_p'
p990
I578
sS'm.01k0k7'
p991
I428
sS'm.0b6kcd4'
p992
I259
sS'm.0j7msrm'
p993
I175
sS'm.0238n6'
p994
I137
sS'm.02rgqsl'
p995
I188
sS'm.03v5f1'
p996
I491
sS'm.026242c'
p997
I413
sS'm.03x_f32'
p998
I158
sS'm.0bxfq'
p999
I712
sS'm.028bs9l'
p1000
I533
s.